target datalayout = "e-m:e-p270:32:32-p271:32:32-p272:64:64-i64:64-i128:128-f80:128-n8:16:32:64-S128"
target triple = "x86_64-pc-linux-gnu"

%struct.Subprocess = type <{ %"class.std::__cxx11::basic_string", i32, i32, i8, [7 x i8] }>
%"class.std::__cxx11::basic_string" = type { %"struct.std::__cxx11::basic_string<char>::_Alloc_hider", i64, %union.anon }
%"struct.std::__cxx11::basic_string<char>::_Alloc_hider" = type { ptr }
%union.anon = type { i64, [8 x i8] }
%struct.posix_spawn_file_actions_t = type { i32, i32, ptr, [16 x i32] }
%struct.posix_spawnattr_t = type { i16, i32, %struct.__sigset_t, %struct.__sigset_t, %struct.sched_param, i32, [16 x i32] }
%struct.__sigset_t = type { [16 x i64] }
%struct.sched_param = type { i32 }
%struct.SubprocessSet = type { %"class.std::vector", %"class.std::queue", %struct.sigaction, %struct.sigaction, %struct.sigaction, %struct.__sigset_t }
%"class.std::vector" = type { %"struct.std::_Vector_base" }
%"struct.std::_Vector_base" = type { %"struct.std::_Vector_base<Subprocess *, std::allocator<Subprocess *>>::_Vector_impl" }
%"struct.std::_Vector_base<Subprocess *, std::allocator<Subprocess *>>::_Vector_impl" = type { %"struct.std::_Vector_base<Subprocess *, std::allocator<Subprocess *>>::_Vector_impl_data" }
%"struct.std::_Vector_base<Subprocess *, std::allocator<Subprocess *>>::_Vector_impl_data" = type { ptr, ptr, ptr }
%"class.std::queue" = type { %"class.std::deque" }
%"class.std::deque" = type { %"class.std::_Deque_base" }
%"class.std::_Deque_base" = type { %"struct.std::_Deque_base<Subprocess *, std::allocator<Subprocess *>>::_Deque_impl" }
%"struct.std::_Deque_base<Subprocess *, std::allocator<Subprocess *>>::_Deque_impl" = type { %"struct.std::_Deque_base<Subprocess *, std::allocator<Subprocess *>>::_Deque_impl_data" }
%"struct.std::_Deque_base<Subprocess *, std::allocator<Subprocess *>>::_Deque_impl_data" = type { ptr, i64, %"struct.std::_Deque_iterator", %"struct.std::_Deque_iterator" }
%"struct.std::_Deque_iterator" = type { ptr, ptr, ptr, ptr }
%struct.sigaction = type { %union.anon.3, %struct.__sigset_t, i32, ptr }
%union.anon.3 = type { ptr }

@.str = private unnamed_addr constant [9 x i8] c"pipe: %s\00", align 1
@.str.1 = private unnamed_addr constant [34 x i8] c"posix_spawn_file_actions_init: %s\00", align 1
@.str.2 = private unnamed_addr constant [38 x i8] c"posix_spawn_file_actions_addclose: %s\00", align 1
@.str.3 = private unnamed_addr constant [25 x i8] c"posix_spawnattr_init: %s\00", align 1
@.str.4 = private unnamed_addr constant [31 x i8] c"posix_spawnattr_setsigmask: %s\00", align 1
@.str.5 = private unnamed_addr constant [10 x i8] c"/dev/null\00", align 1
@.str.6 = private unnamed_addr constant [37 x i8] c"posix_spawn_file_actions_addopen: %s\00", align 1
@.str.7 = private unnamed_addr constant [37 x i8] c"posix_spawn_file_actions_adddup2: %s\00", align 1
@.str.8 = private unnamed_addr constant [29 x i8] c"posix_spawnattr_setflags: %s\00", align 1
@.str.9 = private unnamed_addr constant [8 x i8] c"/bin/sh\00", align 1
@.str.10 = private unnamed_addr constant [3 x i8] c"-c\00", align 1
@environ = external global ptr, align 8
@.str.11 = private unnamed_addr constant [16 x i8] c"posix_spawn: %s\00", align 1
@.str.12 = private unnamed_addr constant [28 x i8] c"posix_spawnattr_destroy: %s\00", align 1
@.str.13 = private unnamed_addr constant [37 x i8] c"posix_spawn_file_actions_destroy: %s\00", align 1

; Function Attrs: noinline noreturn nounwind uwtable
define linkonce_odr hidden void @__clang_call_terminate(ptr noundef %0) #2 comdat {
  %2 = call ptr @__cxa_begin_catch(ptr %0) #16
  call void @_ZSt9terminatev() #17
  unreachable
}

; Function Attrs: mustprogress nounwind uwtable
define available_externally noundef ptr @_ZNKSt7__cxx1112basic_stringIcSt11char_traitsIcESaIcEE7_M_dataEv(ptr noundef nonnull align 8 dereferenceable(32) %0) #0 align 2 {
  %2 = alloca ptr, align 8
  store ptr %0, ptr %2, align 8, !tbaa !22
  %3 = load ptr, ptr %2, align 8
  %4 = getelementptr inbounds nuw %"class.std::__cxx11::basic_string", ptr %3, i32 0, i32 0
  %5 = getelementptr inbounds nuw %"struct.std::__cxx11::basic_string<char>::_Alloc_hider", ptr %4, i32 0, i32 0
  %6 = load ptr, ptr %5, align 8, !tbaa !115
  ret ptr %6
}

; Function Attrs: mustprogress nounwind uwtable
define available_externally noundef ptr @_ZNKSt7__cxx1112basic_stringIcSt11char_traitsIcESaIcEE5c_strEv(ptr noundef nonnull align 8 dereferenceable(32) %0) #0 align 2 personality ptr @__gxx_personality_v0 {
  %2 = alloca ptr, align 8
  store ptr %0, ptr %2, align 8, !tbaa !22
  %3 = load ptr, ptr %2, align 8
  %4 = invoke noundef ptr @_ZNKSt7__cxx1112basic_stringIcSt11char_traitsIcESaIcEE7_M_dataEv(ptr noundef nonnull align 8 dereferenceable(32) %3)
          to label %5 unwind label %6

5:                                                ; preds = %1
  ret ptr %4

6:                                                ; preds = %1
  %7 = landingpad { ptr, i32 }
          catch ptr null
  %8 = extractvalue { ptr, i32 } %7, 0
  call void @__clang_call_terminate(ptr %8) #17
  unreachable
}

; Function Attrs: mustprogress uwtable
define dso_local noundef zeroext i1 @_ZN10Subprocess5StartEP13SubprocessSetRKNSt7__cxx1112basic_stringIcSt11char_traitsIcESaIcEEE(ptr noundef nonnull align 8 dereferenceable(41) %0, ptr noundef %1, ptr noundef nonnull align 8 dereferenceable(32) %2) #3 align 2 {
  %4 = alloca ptr, align 8
  %5 = alloca ptr, align 8
  %6 = alloca ptr, align 8
  %7 = alloca [2 x i32], align 4
  %8 = alloca %struct.posix_spawn_file_actions_t, align 8
  %9 = alloca i32, align 4
  %10 = alloca %struct.posix_spawnattr_t, align 8
  %11 = alloca i16, align 2
  %12 = alloca [4 x ptr], align 16
  store ptr %0, ptr %4, align 8, !tbaa !4
  store ptr %1, ptr %5, align 8, !tbaa !25
  store ptr %2, ptr %6, align 8, !tbaa !22
  %13 = load ptr, ptr %4, align 8
  call void @llvm.lifetime.start.p0(i64 8, ptr %7) #16
  %14 = getelementptr inbounds [2 x i32], ptr %7, i64 0, i64 0
  %15 = call i32 @pipe(ptr noundef %14) #16
  %16 = icmp slt i32 %15, 0
  br i1 %16, label %17, label %21

17:                                               ; preds = %3
  %18 = call ptr @__errno_location() #18
  %19 = load i32, ptr %18, align 4, !tbaa !24
  %20 = call ptr @strerror(i32 noundef %19) #16
  call void (ptr, ...) @_Z5FatalPKcz(ptr noundef @.str, ptr noundef %20) #19
  unreachable

21:                                               ; preds = %3
  %22 = getelementptr inbounds [2 x i32], ptr %7, i64 0, i64 0
  %23 = load i32, ptr %22, align 4, !tbaa !24
  %24 = getelementptr inbounds nuw %struct.Subprocess, ptr %13, i32 0, i32 1
  store i32 %23, ptr %24, align 8, !tbaa !11
  %25 = getelementptr inbounds nuw %struct.Subprocess, ptr %13, i32 0, i32 1
  %26 = load i32, ptr %25, align 8, !tbaa !11
  call void @_Z14SetCloseOnExeci(i32 noundef %26)
  call void @llvm.lifetime.start.p0(i64 80, ptr %8) #16
  call void @llvm.lifetime.start.p0(i64 4, ptr %9) #16
  %27 = call i32 @posix_spawn_file_actions_init(ptr noundef %8) #16
  store i32 %27, ptr %9, align 4, !tbaa !24
  %28 = load i32, ptr %9, align 4, !tbaa !24
  %29 = icmp ne i32 %28, 0
  br i1 %29, label %30, label %33

30:                                               ; preds = %21
  %31 = load i32, ptr %9, align 4, !tbaa !24
  %32 = call ptr @strerror(i32 noundef %31) #16
  call void (ptr, ...) @_Z5FatalPKcz(ptr noundef @.str.1, ptr noundef %32) #19
  unreachable

33:                                               ; preds = %21
  %34 = getelementptr inbounds [2 x i32], ptr %7, i64 0, i64 0
  %35 = load i32, ptr %34, align 4, !tbaa !24
  %36 = call i32 @posix_spawn_file_actions_addclose(ptr noundef %8, i32 noundef %35) #16
  store i32 %36, ptr %9, align 4, !tbaa !24
  %37 = load i32, ptr %9, align 4, !tbaa !24
  %38 = icmp ne i32 %37, 0
  br i1 %38, label %39, label %42

39:                                               ; preds = %33
  %40 = load i32, ptr %9, align 4, !tbaa !24
  %41 = call ptr @strerror(i32 noundef %40) #16
  call void (ptr, ...) @_Z5FatalPKcz(ptr noundef @.str.2, ptr noundef %41) #19
  unreachable

42:                                               ; preds = %33
  call void @llvm.lifetime.start.p0(i64 336, ptr %10) #16
  %43 = call i32 @posix_spawnattr_init(ptr noundef %10) #16
  store i32 %43, ptr %9, align 4, !tbaa !24
  %44 = load i32, ptr %9, align 4, !tbaa !24
  %45 = icmp ne i32 %44, 0
  br i1 %45, label %46, label %49

46:                                               ; preds = %42
  %47 = load i32, ptr %9, align 4, !tbaa !24
  %48 = call ptr @strerror(i32 noundef %47) #16
  call void (ptr, ...) @_Z5FatalPKcz(ptr noundef @.str.3, ptr noundef %48) #19
  unreachable

49:                                               ; preds = %42
  call void @llvm.lifetime.start.p0(i64 2, ptr %11) #16
  store i16 0, ptr %11, align 2, !tbaa !27
  %50 = load i16, ptr %11, align 2, !tbaa !27
  %51 = sext i16 %50 to i32
  %52 = or i32 %51, 8
  %53 = trunc i32 %52 to i16
  store i16 %53, ptr %11, align 2, !tbaa !27
  %54 = load ptr, ptr %5, align 8, !tbaa !25
  %55 = getelementptr inbounds nuw %struct.SubprocessSet, ptr %54, i32 0, i32 5
  %56 = call i32 @posix_spawnattr_setsigmask(ptr noundef %10, ptr noundef %55) #16
  store i32 %56, ptr %9, align 4, !tbaa !24
  %57 = load i32, ptr %9, align 4, !tbaa !24
  %58 = icmp ne i32 %57, 0
  br i1 %58, label %59, label %62

59:                                               ; preds = %49
  %60 = load i32, ptr %9, align 4, !tbaa !24
  %61 = call ptr @strerror(i32 noundef %60) #16
  call void (ptr, ...) @_Z5FatalPKcz(ptr noundef @.str.4, ptr noundef %61) #19
  unreachable

62:                                               ; preds = %49
  %63 = getelementptr inbounds nuw %struct.Subprocess, ptr %13, i32 0, i32 3
  %64 = load i8, ptr %63, align 8, !tbaa !21, !range !19, !noundef !20
  %65 = trunc i8 %64 to i1
  br i1 %65, label %105, label %66

66:                                               ; preds = %62
  %67 = load i16, ptr %11, align 2, !tbaa !27
  %68 = sext i16 %67 to i32
  %69 = or i32 %68, 2
  %70 = trunc i32 %69 to i16
  store i16 %70, ptr %11, align 2, !tbaa !27
  %71 = call i32 @posix_spawn_file_actions_addopen(ptr noundef %8, i32 noundef 0, ptr noundef @.str.5, i32 noundef 0, i32 noundef 0) #16
  store i32 %71, ptr %9, align 4, !tbaa !24
  %72 = load i32, ptr %9, align 4, !tbaa !24
  %73 = icmp ne i32 %72, 0
  br i1 %73, label %74, label %77

74:                                               ; preds = %66
  %75 = load i32, ptr %9, align 4, !tbaa !24
  %76 = call ptr @strerror(i32 noundef %75) #16
  call void (ptr, ...) @_Z5FatalPKcz(ptr noundef @.str.6, ptr noundef %76) #19
  unreachable

77:                                               ; preds = %66
  %78 = getelementptr inbounds [2 x i32], ptr %7, i64 0, i64 1
  %79 = load i32, ptr %78, align 4, !tbaa !24
  %80 = call i32 @posix_spawn_file_actions_adddup2(ptr noundef %8, i32 noundef %79, i32 noundef 1) #16
  store i32 %80, ptr %9, align 4, !tbaa !24
  %81 = load i32, ptr %9, align 4, !tbaa !24
  %82 = icmp ne i32 %81, 0
  br i1 %82, label %83, label %86

83:                                               ; preds = %77
  %84 = load i32, ptr %9, align 4, !tbaa !24
  %85 = call ptr @strerror(i32 noundef %84) #16
  call void (ptr, ...) @_Z5FatalPKcz(ptr noundef @.str.7, ptr noundef %85) #19
  unreachable

86:                                               ; preds = %77
  %87 = getelementptr inbounds [2 x i32], ptr %7, i64 0, i64 1
  %88 = load i32, ptr %87, align 4, !tbaa !24
  %89 = call i32 @posix_spawn_file_actions_adddup2(ptr noundef %8, i32 noundef %88, i32 noundef 2) #16
  store i32 %89, ptr %9, align 4, !tbaa !24
  %90 = load i32, ptr %9, align 4, !tbaa !24
  %91 = icmp ne i32 %90, 0
  br i1 %91, label %92, label %95

92:                                               ; preds = %86
  %93 = load i32, ptr %9, align 4, !tbaa !24
  %94 = call ptr @strerror(i32 noundef %93) #16
  call void (ptr, ...) @_Z5FatalPKcz(ptr noundef @.str.7, ptr noundef %94) #19
  unreachable

95:                                               ; preds = %86
  %96 = getelementptr inbounds [2 x i32], ptr %7, i64 0, i64 1
  %97 = load i32, ptr %96, align 4, !tbaa !24
  %98 = call i32 @posix_spawn_file_actions_addclose(ptr noundef %8, i32 noundef %97) #16
  store i32 %98, ptr %9, align 4, !tbaa !24
  %99 = load i32, ptr %9, align 4, !tbaa !24
  %100 = icmp ne i32 %99, 0
  br i1 %100, label %101, label %104

101:                                              ; preds = %95
  %102 = load i32, ptr %9, align 4, !tbaa !24
  %103 = call ptr @strerror(i32 noundef %102) #16
  call void (ptr, ...) @_Z5FatalPKcz(ptr noundef @.str.2, ptr noundef %103) #19
  unreachable

104:                                              ; preds = %95
  br label %105

105:                                              ; preds = %104, %62
  %106 = load i16, ptr %11, align 2, !tbaa !27
  %107 = sext i16 %106 to i32
  %108 = or i32 %107, 64
  %109 = trunc i32 %108 to i16
  store i16 %109, ptr %11, align 2, !tbaa !27
  %110 = load i16, ptr %11, align 2, !tbaa !27
  %111 = call i32 @posix_spawnattr_setflags(ptr noundef %10, i16 noundef signext %110) #16
  store i32 %111, ptr %9, align 4, !tbaa !24
  %112 = load i32, ptr %9, align 4, !tbaa !24
  %113 = icmp ne i32 %112, 0
  br i1 %113, label %114, label %117

114:                                              ; preds = %105
  %115 = load i32, ptr %9, align 4, !tbaa !24
  %116 = call ptr @strerror(i32 noundef %115) #16
  call void (ptr, ...) @_Z5FatalPKcz(ptr noundef @.str.8, ptr noundef %116) #19
  unreachable

117:                                              ; preds = %105
  call void @llvm.lifetime.start.p0(i64 32, ptr %12) #16
  store ptr @.str.9, ptr %12, align 8, !tbaa !29
  %118 = getelementptr inbounds ptr, ptr %12, i64 1
  store ptr @.str.10, ptr %118, align 8, !tbaa !29
  %119 = getelementptr inbounds ptr, ptr %12, i64 2
  %120 = load ptr, ptr %6, align 8, !tbaa !22
  %121 = call noundef ptr @_ZNKSt7__cxx1112basic_stringIcSt11char_traitsIcESaIcEE5c_strEv(ptr noundef nonnull align 8 dereferenceable(32) %120) #16
  store ptr %121, ptr %119, align 8, !tbaa !29
  %122 = getelementptr inbounds ptr, ptr %12, i64 3
  store ptr null, ptr %122, align 8, !tbaa !29
  %123 = getelementptr inbounds nuw %struct.Subprocess, ptr %13, i32 0, i32 2
  %124 = getelementptr inbounds [4 x ptr], ptr %12, i64 0, i64 0
  %125 = load ptr, ptr @environ, align 8, !tbaa !30
  %126 = call i32 @posix_spawn(ptr noundef %123, ptr noundef @.str.9, ptr noundef %8, ptr noundef %10, ptr noundef %124, ptr noundef %125)
  store i32 %126, ptr %9, align 4, !tbaa !24
  %127 = load i32, ptr %9, align 4, !tbaa !24
  %128 = icmp ne i32 %127, 0
  br i1 %128, label %129, label %132

129:                                              ; preds = %117
  %130 = load i32, ptr %9, align 4, !tbaa !24
  %131 = call ptr @strerror(i32 noundef %130) #16
  call void (ptr, ...) @_Z5FatalPKcz(ptr noundef @.str.11, ptr noundef %131) #19
  unreachable

132:                                              ; preds = %117
  %133 = call i32 @posix_spawnattr_destroy(ptr noundef %10) #16
  store i32 %133, ptr %9, align 4, !tbaa !24
  %134 = load i32, ptr %9, align 4, !tbaa !24
  %135 = icmp ne i32 %134, 0
  br i1 %135, label %136, label %139

136:                                              ; preds = %132
  %137 = load i32, ptr %9, align 4, !tbaa !24
  %138 = call ptr @strerror(i32 noundef %137) #16
  call void (ptr, ...) @_Z5FatalPKcz(ptr noundef @.str.12, ptr noundef %138) #19
  unreachable

139:                                              ; preds = %132
  %140 = call i32 @posix_spawn_file_actions_destroy(ptr noundef %8) #16
  store i32 %140, ptr %9, align 4, !tbaa !24
  %141 = load i32, ptr %9, align 4, !tbaa !24
  %142 = icmp ne i32 %141, 0
  br i1 %142, label %143, label %146

143:                                              ; preds = %139
  %144 = load i32, ptr %9, align 4, !tbaa !24
  %145 = call ptr @strerror(i32 noundef %144) #16
  call void (ptr, ...) @_Z5FatalPKcz(ptr noundef @.str.13, ptr noundef %145) #19
  unreachable

146:                                              ; preds = %139
  %147 = getelementptr inbounds [2 x i32], ptr %7, i64 0, i64 1
  %148 = load i32, ptr %147, align 4, !tbaa !24
  %149 = call i32 @close(i32 noundef %148)
  call void @llvm.lifetime.end.p0(i64 32, ptr %12) #16
  call void @llvm.lifetime.end.p0(i64 2, ptr %11) #16
  call void @llvm.lifetime.end.p0(i64 336, ptr %10) #16
  call void @llvm.lifetime.end.p0(i64 4, ptr %9) #16
  call void @llvm.lifetime.end.p0(i64 80, ptr %8) #16
  call void @llvm.lifetime.end.p0(i64 8, ptr %7) #16
  ret i1 true
}