; Function Attrs: mustprogress uwtable
define dso_local noundef zeroext i1 @_ZN10Subprocess5StartEP13SubprocessSetRKNSt7__cxx1112basic_stringIcSt11char_traitsIcESaIcEEE(ptr noundef nonnull align 8 dereferenceable(41) %0, ptr noundef %1, ptr noundef nonnull readonly align 8 captures(none) dereferenceable(32) %2) local_unnamed_addr #5 align 2 personality ptr @__gxx_personality_v0 {
  %4 = alloca [2 x i32], align 4
  %5 = alloca %struct.posix_spawn_file_actions_t, align 8
  %6 = alloca %struct.posix_spawnattr_t, align 8
  %7 = alloca [4 x ptr], align 16
  call void @llvm.lifetime.start.p0(i64 8, ptr nonnull %4) #22
  %8 = call i32 @pipe(ptr noundef nonnull %4) #22
  %9 = icmp slt i32 %8, 0
  br i1 %9, label %10, label %14

10:                                               ; preds = %3
  %11 = tail call ptr @__errno_location() #23
  %12 = load i32, ptr %11, align 4, !tbaa !20
  %13 = call ptr @strerror(i32 noundef %12) #22
  call void (ptr, ...) @_Z5FatalPKcz(ptr noundef nonnull @.str, ptr noundef %13) #24
  unreachable

14:                                               ; preds = %3
  %15 = load i32, ptr %4, align 4, !tbaa !20
  %16 = getelementptr inbounds nuw i8, ptr %0, i64 32
  store i32 %15, ptr %16, align 8, !tbaa !14
  call void @_Z14SetCloseOnExeci(i32 noundef %15)
  call void @llvm.lifetime.start.p0(i64 80, ptr nonnull %5) #22
  %17 = call i32 @posix_spawn_file_actions_init(ptr noundef nonnull %5) #22
  %.not = icmp eq i32 %17, 0
  br i1 %.not, label %20, label %18

18:                                               ; preds = %14
  %19 = call ptr @strerror(i32 noundef %17) #22
  call void (ptr, ...) @_Z5FatalPKcz(ptr noundef nonnull @.str.1, ptr noundef %19) #24
  unreachable

20:                                               ; preds = %14
  %21 = load i32, ptr %4, align 4, !tbaa !20
  %22 = call i32 @posix_spawn_file_actions_addclose(ptr noundef nonnull %5, i32 noundef %21) #22
  %.not42 = icmp eq i32 %22, 0
  br i1 %.not42, label %25, label %23

23:                                               ; preds = %20
  %24 = call ptr @strerror(i32 noundef %22) #22
  call void (ptr, ...) @_Z5FatalPKcz(ptr noundef nonnull @.str.2, ptr noundef %24) #24
  unreachable

25:                                               ; preds = %20
  call void @llvm.lifetime.start.p0(i64 336, ptr nonnull %6) #22
  %26 = call i32 @posix_spawnattr_init(ptr noundef nonnull %6) #22
  %.not43 = icmp eq i32 %26, 0
  br i1 %.not43, label %29, label %27

27:                                               ; preds = %25
  %28 = call ptr @strerror(i32 noundef %26) #22
  call void (ptr, ...) @_Z5FatalPKcz(ptr noundef nonnull @.str.3, ptr noundef %28) #24
  unreachable

29:                                               ; preds = %25
  %30 = getelementptr inbounds nuw i8, ptr %1, i64 560
  %31 = call i32 @posix_spawnattr_setsigmask(ptr noundef nonnull %6, ptr noundef nonnull %30) #22
  %.not44 = icmp eq i32 %31, 0
  br i1 %.not44, label %34, label %32

32:                                               ; preds = %29
  %33 = call ptr @strerror(i32 noundef %31) #22
  call void (ptr, ...) @_Z5FatalPKcz(ptr noundef nonnull @.str.4, ptr noundef %33) #24
  unreachable

34:                                               ; preds = %29
  %35 = getelementptr inbounds nuw i8, ptr %0, i64 40
  %36 = load i8, ptr %35, align 8, !tbaa !19, !range !22, !noundef !23
  %37 = trunc nuw i8 %36 to i1
  br i1 %37, label %58, label %38

38:                                               ; preds = %34
  %39 = call i32 @posix_spawn_file_actions_addopen(ptr noundef nonnull %5, i32 noundef 0, ptr noundef nonnull @.str.5, i32 noundef 0, i32 noundef 0) #22
  %.not45 = icmp eq i32 %39, 0
  br i1 %.not45, label %42, label %40

40:                                               ; preds = %38
  %41 = call ptr @strerror(i32 noundef %39) #22
  call void (ptr, ...) @_Z5FatalPKcz(ptr noundef nonnull @.str.6, ptr noundef %41) #24
  unreachable

42:                                               ; preds = %38
  %43 = getelementptr inbounds nuw i8, ptr %4, i64 4
  %44 = load i32, ptr %43, align 4, !tbaa !20
  %45 = call i32 @posix_spawn_file_actions_adddup2(ptr noundef nonnull %5, i32 noundef %44, i32 noundef 1) #22
  %.not46 = icmp eq i32 %45, 0
  br i1 %.not46, label %48, label %46

46:                                               ; preds = %42
  %47 = call ptr @strerror(i32 noundef %45) #22
  call void (ptr, ...) @_Z5FatalPKcz(ptr noundef nonnull @.str.7, ptr noundef %47) #24
  unreachable

48:                                               ; preds = %42
  %49 = load i32, ptr %43, align 4, !tbaa !20
  %50 = call i32 @posix_spawn_file_actions_adddup2(ptr noundef nonnull %5, i32 noundef %49, i32 noundef 2) #22
  %.not47 = icmp eq i32 %50, 0
  br i1 %.not47, label %53, label %51

51:                                               ; preds = %48
  %52 = call ptr @strerror(i32 noundef %50) #22
  call void (ptr, ...) @_Z5FatalPKcz(ptr noundef nonnull @.str.7, ptr noundef %52) #24
  unreachable

53:                                               ; preds = %48
  %54 = load i32, ptr %43, align 4, !tbaa !20
  %55 = call i32 @posix_spawn_file_actions_addclose(ptr noundef nonnull %5, i32 noundef %54) #22
  %.not48 = icmp eq i32 %55, 0
  br i1 %.not48, label %58, label %56

56:                                               ; preds = %53
  %57 = call ptr @strerror(i32 noundef %55) #22
  call void (ptr, ...) @_Z5FatalPKcz(ptr noundef nonnull @.str.2, ptr noundef %57) #24
  unreachable

58:                                               ; preds = %53, %34
  %.0 = phi i16 [ 72, %34 ], [ 74, %53 ]
  %59 = call i32 @posix_spawnattr_setflags(ptr noundef nonnull %6, i16 noundef signext %.0) #22
  %.not49 = icmp eq i32 %59, 0
  br i1 %.not49, label %62, label %60

60:                                               ; preds = %58
  %61 = call ptr @strerror(i32 noundef %59) #22
  call void (ptr, ...) @_Z5FatalPKcz(ptr noundef nonnull @.str.8, ptr noundef %61) #24
  unreachable

62:                                               ; preds = %58
  call void @llvm.lifetime.start.p0(i64 32, ptr nonnull %7) #22
  store ptr @.str.9, ptr %7, align 16, !tbaa !24
  %63 = getelementptr inbounds nuw i8, ptr %7, i64 8
  store ptr @.str.10, ptr %63, align 8, !tbaa !24
  %64 = getelementptr inbounds nuw i8, ptr %7, i64 16
  %65 = load ptr, ptr %2, align 8, !tbaa !21
  store ptr %65, ptr %64, align 16, !tbaa !24
  %66 = getelementptr inbounds nuw i8, ptr %7, i64 24
  store ptr null, ptr %66, align 8, !tbaa !24
  %67 = getelementptr inbounds nuw i8, ptr %0, i64 36
  %68 = load ptr, ptr @environ, align 8, !tbaa !25
  %69 = call i32 @posix_spawn(ptr noundef nonnull %67, ptr noundef nonnull @.str.9, ptr noundef nonnull %5, ptr noundef nonnull %6, ptr noundef nonnull %7, ptr noundef %68)
  %.not50 = icmp eq i32 %69, 0
  br i1 %.not50, label %72, label %70

70:                                               ; preds = %62
  %71 = call ptr @strerror(i32 noundef %69) #22
  call void (ptr, ...) @_Z5FatalPKcz(ptr noundef nonnull @.str.11, ptr noundef %71) #24
  unreachable

72:                                               ; preds = %62
  %73 = call i32 @posix_spawnattr_destroy(ptr noundef nonnull %6) #22
  %.not51 = icmp eq i32 %73, 0
  br i1 %.not51, label %76, label %74

74:                                               ; preds = %72
  %75 = call ptr @strerror(i32 noundef %73) #22
  call void (ptr, ...) @_Z5FatalPKcz(ptr noundef nonnull @.str.12, ptr noundef %75) #24
  unreachable

76:                                               ; preds = %72
  %77 = call i32 @posix_spawn_file_actions_destroy(ptr noundef nonnull %5) #22
  %.not52 = icmp eq i32 %77, 0
  br i1 %.not52, label %80, label %78

78:                                               ; preds = %76
  %79 = call ptr @strerror(i32 noundef %77) #22
  call void (ptr, ...) @_Z5FatalPKcz(ptr noundef nonnull @.str.13, ptr noundef %79) #24
  unreachable

80:                                               ; preds = %76
  %81 = getelementptr inbounds nuw i8, ptr %4, i64 4
  %82 = load i32, ptr %81, align 4, !tbaa !20
  %83 = call i32 @close(i32 noundef %82)
  call void @llvm.lifetime.end.p0(i64 32, ptr nonnull %7) #22
  call void @llvm.lifetime.end.p0(i64 336, ptr nonnull %6) #22
  call void @llvm.lifetime.end.p0(i64 80, ptr nonnull %5) #22
  call void @llvm.lifetime.end.p0(i64 8, ptr nonnull %4) #22
  ret i1 true
}